target datalayout = "e-m:e-p270:32:32-p271:32:32-p272:64:64-i64:64-i128:128-f80:128-n8:16:32:64-S128"
target triple = "x86_64-unknown-linux-gnu"

%"class.absl::debian2::string_view" = type { ptr, i64 }
%"class.re2::Regexp::ParseState" = type { i32, %"class.absl::debian2::string_view", ptr, ptr, i32, i32 }
%"class.re2::Regexp" = type { i8, i8, i16, i16, i16, %union.anon, ptr, %union.anon.0 }
%union.anon = type { ptr }
%union.anon.0 = type { %struct.anon.1 }
%struct.anon.1 = type { i32, ptr }
%struct.anon.3 = type { ptr, ptr }

; Function Attrs: mustprogress nounwind uwtable
define linkonce_odr noundef i32 @_ZN3re2coENS_6Regexp10ParseFlagsE(i32 noundef %a) #0 comdat {
entry:
  %a.addr = alloca i32, align 4
  store i32 %a, ptr %a.addr, align 4
  %0 = load i32, ptr %a.addr, align 4
  %not = xor i32 %0, -1
  %and = and i32 %not, 16383
  ret i32 %and
}

; Function Attrs: mustprogress uwtable
define noundef zeroext i1 @_ZN3re26Regexp10ParseState12PushSimpleOpENS_8RegexpOpE(ptr noundef nonnull align 8 dereferenceable(48) %this, i32 noundef %op) #1 align 2 personality ptr @__gxx_personality_v0 {
entry:
  %this.addr = alloca ptr, align 8
  %op.addr = alloca i32, align 4
  %re = alloca ptr, align 8
  %exn.slot = alloca ptr, align 8
  %ehselector.slot = alloca i32, align 4
  store ptr %this, ptr %this.addr, align 8
  store i32 %op, ptr %op.addr, align 4
  %this1 = load ptr, ptr %this.addr, align 8
  %call = call noalias noundef nonnull ptr @_Znwm(i64 noundef 40) #15
  %0 = load i32, ptr %op.addr, align 4
  %flags_ = getelementptr inbounds %"class.re2::Regexp::ParseState", ptr %this1, i32 0, i32 0
  %1 = load i32, ptr %flags_, align 8
  invoke void @_ZN3re26RegexpC1ENS_8RegexpOpENS0_10ParseFlagsE(ptr noundef nonnull align 8 dereferenceable(40) %call, i32 noundef %0, i32 noundef %1)
          to label %invoke.cont unwind label %lpad

invoke.cont:                                      ; preds = %entry
  store ptr %call, ptr %re, align 8
  %2 = load ptr, ptr %re, align 8
  %call2 = call noundef zeroext i1 @_ZN3re26Regexp10ParseState10PushRegexpEPS0_(ptr noundef nonnull align 8 dereferenceable(48) %this1, ptr noundef %2)
  ret i1 %call2

lpad:                                             ; preds = %entry
  %3 = landingpad { ptr, i32 }
          cleanup
  %4 = extractvalue { ptr, i32 } %3, 0
  store ptr %4, ptr %exn.slot, align 8
  %5 = extractvalue { ptr, i32 } %3, 1
  store i32 %5, ptr %ehselector.slot, align 4
  call void @_ZdlPv(ptr noundef %call) #13
  br label %eh.resume

eh.resume:                                        ; preds = %lpad
  %exn = load ptr, ptr %exn.slot, align 8
  %sel = load i32, ptr %ehselector.slot, align 4
  %lpad.val = insertvalue { ptr, i32 } poison, ptr %exn, 0
  %lpad.val3 = insertvalue { ptr, i32 } %lpad.val, i32 %sel, 1
  resume { ptr, i32 } %lpad.val3
}

; Function Attrs: mustprogress nounwind uwtable
define linkonce_odr noundef i32 @_ZN3re2anENS_6Regexp10ParseFlagsES1_(i32 noundef %a, i32 noundef %b) #0 comdat {
entry:
  %a.addr = alloca i32, align 4
  %b.addr = alloca i32, align 4
  store i32 %a, ptr %a.addr, align 4
  store i32 %b, ptr %b.addr, align 4
  %0 = load i32, ptr %a.addr, align 4
  %1 = load i32, ptr %b.addr, align 4
  %and = and i32 %0, %1
  ret i32 %and
}

; Function Attrs: mustprogress uwtable
define noundef zeroext i1 @_ZN3re26Regexp10ParseState7PushDotEv(ptr noundef nonnull align 8 dereferenceable(48) %this) #1 align 2 personality ptr @__gxx_personality_v0 {
entry:
  %retval = alloca i1, align 1
  %this.addr = alloca ptr, align 8
  %re = alloca ptr, align 8
  %exn.slot = alloca ptr, align 8
  %ehselector.slot = alloca i32, align 4
  store ptr %this, ptr %this.addr, align 8
  %this1 = load ptr, ptr %this.addr, align 8
  %flags_ = getelementptr inbounds %"class.re2::Regexp::ParseState", ptr %this1, i32 0, i32 0
  %0 = load i32, ptr %flags_, align 8
  %call = call noundef i32 @_ZN3re2anENS_6Regexp10ParseFlagsES1_(i32 noundef %0, i32 noundef 8)
  %tobool = icmp ne i32 %call, 0
  br i1 %tobool, label %land.lhs.true, label %if.end

land.lhs.true:                                    ; preds = %entry
  %flags_2 = getelementptr inbounds %"class.re2::Regexp::ParseState", ptr %this1, i32 0, i32 0
  %1 = load i32, ptr %flags_2, align 8
  %call3 = call noundef i32 @_ZN3re2anENS_6Regexp10ParseFlagsES1_(i32 noundef %1, i32 noundef 2048)
  %tobool4 = icmp ne i32 %call3, 0
  br i1 %tobool4, label %if.end, label %if.then

if.then:                                          ; preds = %land.lhs.true
  %call5 = call noundef zeroext i1 @_ZN3re26Regexp10ParseState12PushSimpleOpENS_8RegexpOpE(ptr noundef nonnull align 8 dereferenceable(48) %this1, i32 noundef 12)
  store i1 %call5, ptr %retval, align 1
  br label %return

if.end:                                           ; preds = %land.lhs.true, %entry
  %call6 = call noalias noundef nonnull ptr @_Znwm(i64 noundef 40) #15
  %flags_7 = getelementptr inbounds %"class.re2::Regexp::ParseState", ptr %this1, i32 0, i32 0
  %2 = load i32, ptr %flags_7, align 8
  %call8 = invoke noundef i32 @_ZN3re2coENS_6Regexp10ParseFlagsE(i32 noundef 1)
          to label %invoke.cont unwind label %lpad

invoke.cont:                                      ; preds = %if.end
  %call10 = invoke noundef i32 @_ZN3re2anENS_6Regexp10ParseFlagsES1_(i32 noundef %2, i32 noundef %call8)
          to label %invoke.cont9 unwind label %lpad

invoke.cont9:                                     ; preds = %invoke.cont
  invoke void @_ZN3re26RegexpC1ENS_8RegexpOpENS0_10ParseFlagsE(ptr noundef nonnull align 8 dereferenceable(40) %call6, i32 noundef 20, i32 noundef %call10)
          to label %invoke.cont11 unwind label %lpad

invoke.cont11:                                    ; preds = %invoke.cont9
  store ptr %call6, ptr %re, align 8
  %call12 = call noalias noundef nonnull ptr @_Znwm(i64 noundef 64) #15
  invoke void @_ZN3re216CharClassBuilderC1Ev(ptr noundef nonnull align 8 dereferenceable(64) %call12)
          to label %invoke.cont14 unwind label %lpad13

invoke.cont14:                                    ; preds = %invoke.cont11
  %3 = load ptr, ptr %re, align 8
  %4 = getelementptr inbounds %"class.re2::Regexp", ptr %3, i32 0, i32 7
  %ccb_ = getelementptr inbounds %struct.anon.3, ptr %4, i32 0, i32 1
  store ptr %call12, ptr %ccb_, align 8
  %5 = load ptr, ptr %re, align 8
  %6 = getelementptr inbounds %"class.re2::Regexp", ptr %5, i32 0, i32 7
  %ccb_15 = getelementptr inbounds %struct.anon.3, ptr %6, i32 0, i32 1
  %7 = load ptr, ptr %ccb_15, align 8
  %call16 = call noundef zeroext i1 @_ZN3re216CharClassBuilder8AddRangeEii(ptr noundef nonnull align 8 dereferenceable(64) %7, i32 noundef 0, i32 noundef 9)
  %8 = load ptr, ptr %re, align 8
  %9 = getelementptr inbounds %"class.re2::Regexp", ptr %8, i32 0, i32 7
  %ccb_17 = getelementptr inbounds %struct.anon.3, ptr %9, i32 0, i32 1
  %10 = load ptr, ptr %ccb_17, align 8
  %rune_max_ = getelementptr inbounds %"class.re2::Regexp::ParseState", ptr %this1, i32 0, i32 5
  %11 = load i32, ptr %rune_max_, align 4
  %call18 = call noundef zeroext i1 @_ZN3re216CharClassBuilder8AddRangeEii(ptr noundef nonnull align 8 dereferenceable(64) %10, i32 noundef 11, i32 noundef %11)
  %12 = load ptr, ptr %re, align 8
  %call19 = call noundef zeroext i1 @_ZN3re26Regexp10ParseState10PushRegexpEPS0_(ptr noundef nonnull align 8 dereferenceable(48) %this1, ptr noundef %12)
  store i1 %call19, ptr %retval, align 1
  br label %return

lpad:                                             ; preds = %invoke.cont9, %invoke.cont, %if.end
  %13 = landingpad { ptr, i32 }
          cleanup
  %14 = extractvalue { ptr, i32 } %13, 0
  store ptr %14, ptr %exn.slot, align 8
  %15 = extractvalue { ptr, i32 } %13, 1
  store i32 %15, ptr %ehselector.slot, align 4
  call void @_ZdlPv(ptr noundef %call6) #13
  br label %eh.resume

lpad13:                                           ; preds = %invoke.cont11
  %16 = landingpad { ptr, i32 }
          cleanup
  %17 = extractvalue { ptr, i32 } %16, 0
  store ptr %17, ptr %exn.slot, align 8
  %18 = extractvalue { ptr, i32 } %16, 1
  store i32 %18, ptr %ehselector.slot, align 4
  call void @_ZdlPv(ptr noundef %call12) #13
  br label %eh.resume

return:                                           ; preds = %invoke.cont14, %if.then
  %19 = load i1, ptr %retval, align 1
  ret i1 %19

eh.resume:                                        ; preds = %lpad13, %lpad
  %exn = load ptr, ptr %exn.slot, align 8
  %sel = load i32, ptr %ehselector.slot, align 4
  %lpad.val = insertvalue { ptr, i32 } poison, ptr %exn, 0
  %lpad.val20 = insertvalue { ptr, i32 } %lpad.val, i32 %sel, 1
  resume { ptr, i32 } %lpad.val20
}