; Function Attrs: mustprogress uwtable
define noundef zeroext i1 @_ZN3re26Regexp10ParseState7PushDotEv(ptr nocapture noundef nonnull align 8 dereferenceable(48) %this) local_unnamed_addr #8 align 2 personality ptr @__gxx_personality_v0 {
entry:
  %0 = load i32, ptr %this, align 8
  %1 = and i32 %0, 2056
  %or.cond = icmp eq i32 %1, 8
  %call.i = tail call noalias noundef nonnull dereferenceable(40) ptr @_Znwm(i64 noundef 40) #28
  br i1 %or.cond, label %if.then, label %if.end

if.then:                                          ; preds = %entry
  invoke void @_ZN3re26RegexpC1ENS_8RegexpOpENS0_10ParseFlagsE(ptr noundef nonnull align 8 dereferenceable(40) %call.i, i32 noundef 12, i32 noundef %0)
          to label %return unwind label %lpad.i

common.resume:                                    ; preds = %lpad, %lpad13, %lpad.i
  %call.i.sink = phi ptr [ %call.i, %lpad ], [ %call12, %lpad13 ], [ %call.i, %lpad.i ]
  %common.resume.op = phi { ptr, i32 } [ %5, %lpad ], [ %6, %lpad13 ], [ %2, %lpad.i ]
  tail call void @_ZdlPv(ptr noundef nonnull %call.i.sink) #26
  resume { ptr, i32 } %common.resume.op

lpad.i:                                           ; preds = %if.then
  %2 = landingpad { ptr, i32 }
          cleanup
  br label %common.resume

if.end:                                           ; preds = %entry
  %and.i6 = and i32 %0, 16382
  invoke void @_ZN3re26RegexpC1ENS_8RegexpOpENS0_10ParseFlagsE(ptr noundef nonnull align 8 dereferenceable(40) %call.i, i32 noundef 20, i32 noundef %and.i6)
          to label %invoke.cont11 unwind label %lpad

invoke.cont11:                                    ; preds = %if.end
  %call12 = tail call noalias noundef nonnull dereferenceable(64) ptr @_Znwm(i64 noundef 64) #28
  invoke void @_ZN3re216CharClassBuilderC1Ev(ptr noundef nonnull align 8 dereferenceable(64) %call12)
          to label %invoke.cont14 unwind label %lpad13

invoke.cont14:                                    ; preds = %invoke.cont11
  %ccb_ = getelementptr inbounds i8, ptr %call.i, i64 32
  store ptr %call12, ptr %ccb_, align 8
  %call16 = tail call noundef zeroext i1 @_ZN3re216CharClassBuilder8AddRangeEii(ptr noundef nonnull align 8 dereferenceable(64) %call12, i32 noundef 0, i32 noundef 9)
  %3 = load ptr, ptr %ccb_, align 8
  %rune_max_ = getelementptr inbounds i8, ptr %this, i64 44
  %4 = load i32, ptr %rune_max_, align 4
  %call18 = tail call noundef zeroext i1 @_ZN3re216CharClassBuilder8AddRangeEii(ptr noundef nonnull align 8 dereferenceable(64) %3, i32 noundef 11, i32 noundef %4)
  br label %return

lpad:                                             ; preds = %if.end
  %5 = landingpad { ptr, i32 }
          cleanup
  br label %common.resume

lpad13:                                           ; preds = %invoke.cont11
  %6 = landingpad { ptr, i32 }
          cleanup
  br label %common.resume

return:                                           ; preds = %if.then, %invoke.cont14
  %call19 = tail call noundef zeroext i1 @_ZN3re26Regexp10ParseState10PushRegexpEPS0_(ptr noundef nonnull align 8 dereferenceable(48) %this, ptr noundef nonnull %call.i)
  ret i1 true
}